target datalayout = "e-m:e-p270:32:32-p271:32:32-p272:64:64-i64:64-i128:128-f80:128-n8:16:32:64-S128"
target triple = "x86_64-pc-linux-gnu"

%struct.XXH64_state_s = type { i64, [4 x i64], [4 x i64], i32, i32, i64 }

; Function Attrs: mustprogress nounwind uwtable
define i32 @ROCKSDB_XXH64_reset(ptr noundef captures(none) %0, i64 noundef %1) #4 {
  %3 = alloca ptr, align 8
  %4 = alloca i64, align 8
  store ptr %0, ptr %3, align 8, !tbaa !32
  store i64 %1, ptr %4, align 8, !tbaa !8
  %5 = load ptr, ptr %3, align 8, !tbaa !32
  %6 = icmp ne ptr %5, null
  br i1 %6, label %8, label %7

7:                                                ; preds = %2
  unreachable

8:                                                ; preds = %2
  %9 = load ptr, ptr %3, align 8, !tbaa !32
  call void @llvm.memset.p0.i64(ptr align 8 %9, i8 0, i64 88, i1 false)
  %10 = load i64, ptr %4, align 8, !tbaa !8
  %11 = add i64 %10, -7046029288634856825
  %12 = add i64 %11, -4417276706812531889
  %13 = load ptr, ptr %3, align 8, !tbaa !32
  %14 = getelementptr inbounds nuw %struct.XXH64_state_s, ptr %13, i32 0, i32 1
  %15 = getelementptr inbounds [4 x i64], ptr %14, i64 0, i64 0
  store i64 %12, ptr %15, align 8, !tbaa !8
  %16 = load i64, ptr %4, align 8, !tbaa !8
  %17 = add i64 %16, -4417276706812531889
  %18 = load ptr, ptr %3, align 8, !tbaa !32
  %19 = getelementptr inbounds nuw %struct.XXH64_state_s, ptr %18, i32 0, i32 1
  %20 = getelementptr inbounds [4 x i64], ptr %19, i64 0, i64 1
  store i64 %17, ptr %20, align 8, !tbaa !8
  %21 = load i64, ptr %4, align 8, !tbaa !8
  %22 = add i64 %21, 0
  %23 = load ptr, ptr %3, align 8, !tbaa !32
  %24 = getelementptr inbounds nuw %struct.XXH64_state_s, ptr %23, i32 0, i32 1
  %25 = getelementptr inbounds [4 x i64], ptr %24, i64 0, i64 2
  store i64 %22, ptr %25, align 8, !tbaa !8
  %26 = load i64, ptr %4, align 8, !tbaa !8
  %27 = sub i64 %26, -7046029288634856825
  %28 = load ptr, ptr %3, align 8, !tbaa !32
  %29 = getelementptr inbounds nuw %struct.XXH64_state_s, ptr %28, i32 0, i32 1
  %30 = getelementptr inbounds [4 x i64], ptr %29, i64 0, i64 3
  store i64 %27, ptr %30, align 8, !tbaa !8
  ret i32 0
}