; Function Attrs: mustprogress nofree norecurse nosync nounwind willreturn memory(argmem: write, inaccessiblemem: write) uwtable
define noundef i32 @ROCKSDB_XXH64_reset(ptr noundef writeonly captures(none) %0, i64 noundef %1) local_unnamed_addr #5 {
  %3 = icmp ne ptr %0, null
  tail call void @llvm.assume(i1 %3)
  tail call void @llvm.memset.p0.i64(ptr noundef nonnull align 8 dereferenceable(88) %0, i8 0, i64 88, i1 false)
  %4 = add i64 %1, 6983438078262162902
  %5 = getelementptr inbounds nuw i8, ptr %0, i64 8
  store i64 %4, ptr %5, align 8, !tbaa !19
  %6 = add i64 %1, -4417276706812531889
  %7 = getelementptr inbounds nuw i8, ptr %0, i64 16
  store i64 %6, ptr %7, align 8, !tbaa !19
  %8 = getelementptr inbounds nuw i8, ptr %0, i64 24
  store i64 %1, ptr %8, align 8, !tbaa !19
  %9 = add i64 %1, 7046029288634856825
  %10 = getelementptr inbounds nuw i8, ptr %0, i64 32
  store i64 %9, ptr %10, align 8, !tbaa !19
  ret i32 0
}